target datalayout = "e-m:e-p270:32:32-p271:32:32-p272:64:64-i64:64-i128:128-f80:128-n8:16:32:64-S128"
target triple = "x86_64-pc-linux-gnu"

%struct.SDL_Keyboard = type { ptr, i16, [512 x i8], [512 x i8], ptr, i32, i8, i64, i32 }

@SDL_keyboard = internal global %struct.SDL_Keyboard zeroinitializer, align 8

; Function Attrs: nounwind uwtable
define hidden zeroext i1 @SDL_HardwareKeyboardKeyPressed() #0 {
  %1 = alloca i1, align 1
  %2 = alloca ptr, align 8
  %3 = alloca i32, align 4
  %4 = alloca i32, align 4
  call void @llvm.lifetime.start.p0(i64 8, ptr %2) #6
  store ptr @SDL_keyboard, ptr %2, align 8
  call void @llvm.lifetime.start.p0(i64 4, ptr %3) #6
  store i32 0, ptr %3, align 4
  br label %5

5:                                                ; preds = %20, %0
  %6 = load i32, ptr %3, align 4
  %7 = icmp slt i32 %6, 512
  br i1 %7, label %8, label %23

8:                                                ; preds = %5
  %9 = load ptr, ptr %2, align 8
  %10 = getelementptr inbounds nuw %struct.SDL_Keyboard, ptr %9, i32 0, i32 2
  %11 = load i32, ptr %3, align 4
  %12 = sext i32 %11 to i64
  %13 = getelementptr inbounds [512 x i8], ptr %10, i64 0, i64 %12
  %14 = load i8, ptr %13, align 1
  %15 = zext i8 %14 to i32
  %16 = and i32 %15, 1
  %17 = icmp ne i32 %16, 0
  br i1 %17, label %18, label %19

18:                                               ; preds = %8
  store i1 true, ptr %1, align 1
  store i32 1, ptr %4, align 4
  br label %30

19:                                               ; preds = %8
  br label %20

20:                                               ; preds = %19
  %21 = load i32, ptr %3, align 4
  %22 = add nsw i32 %21, 1
  store i32 %22, ptr %3, align 4
  br label %5, !llvm.loop !12

23:                                               ; preds = %5
  %24 = load ptr, ptr %2, align 8
  %25 = getelementptr inbounds nuw %struct.SDL_Keyboard, ptr %24, i32 0, i32 7
  %26 = load i64, ptr %25, align 8
  %27 = icmp ne i64 %26, 0
  %28 = select i1 %27, i32 1, i32 0
  %29 = icmp ne i32 %28, 0
  store i1 %29, ptr %1, align 1
  store i32 1, ptr %4, align 4
  br label %30

30:                                               ; preds = %23, %18
  call void @llvm.lifetime.end.p0(i64 4, ptr %3) #6
  call void @llvm.lifetime.end.p0(i64 8, ptr %2) #6
  %31 = load i1, ptr %1, align 1
  ret i1 %31
}