; Function Attrs: nofree norecurse nosync nounwind memory(read, argmem: none, inaccessiblemem: none) uwtable
define hidden zeroext i1 @SDL_HardwareKeyboardKeyPressed() local_unnamed_addr #9 {
  br label %2

1:                                                ; preds = %2
  %indvars.iv.next = add nuw nsw i64 %indvars.iv, 1
  %exitcond.not = icmp eq i64 %indvars.iv.next, 512
  br i1 %exitcond.not, label %6, label %2, !llvm.loop !12

2:                                                ; preds = %0, %1
  %indvars.iv = phi i64 [ 0, %0 ], [ %indvars.iv.next, %1 ]
  %3 = getelementptr inbounds nuw [512 x i8], ptr getelementptr inbounds nuw (i8, ptr @SDL_keyboard, i64 10), i64 0, i64 %indvars.iv
  %4 = load i8, ptr %3, align 1
  %5 = and i8 %4, 1
  %.not = icmp eq i8 %5, 0
  br i1 %.not, label %1, label %.loopexit

6:                                                ; preds = %1
  %7 = load i64, ptr getelementptr inbounds nuw (i8, ptr @SDL_keyboard, i64 1056), align 8
  %8 = icmp ne i64 %7, 0
  br label %.loopexit

.loopexit:                                        ; preds = %2, %6
  %.05 = phi i1 [ %8, %6 ], [ true, %2 ]
  ret i1 %.05
}